; ModuleID = '50/1411.c'
source_filename = "50/1411.c"
target datalayout = "e-m:e-p270:32:32-p271:32:32-p272:64:64-i64:64-f80:128-n8:16:32:64-S128"
target triple = "x86_64-pc-linux-gnu"

@.str = private unnamed_addr constant [3 x i8] c"%d\00", align 1
@.str.1 = private unnamed_addr constant [4 x i8] c"%d\0A\00", align 1

; Function Attrs: noinline nounwind uwtable
define dso_local i32 @main() #0 {
  %1 = alloca i32, align 4
  %2 = alloca i32, align 4
  %3 = alloca i32, align 4
  %4 = alloca i32, align 4
  %5 = alloca i32, align 4
  %6 = alloca i32, align 4
  store i32 0, i32* %1, align 4
  %7 = call i32 (i8*, ...) @__isoc99_scanf(i8* getelementptr inbounds ([3 x i8], [3 x i8]* @.str, i64 0, i64 0), i32* %2)
  store i32 1, i32* %3, align 4
  br label %8

8:                                                ; preds = %87, %0
  %9 = load i32, i32* %3, align 4
  %10 = icmp sle i32 %9, 12
  br i1 %10, label %11, label %90

11:                                               ; preds = %8
  store i32 0, i32* %4, align 4
  store i32 1, i32* %5, align 4
  br label %12

12:                                               ; preds = %64, %11
  %13 = load i32, i32* %5, align 4
  %14 = load i32, i32* %3, align 4
  %15 = icmp slt i32 %13, %14
  br i1 %15, label %16, label %67

16:                                               ; preds = %12
  %17 = load i32, i32* %5, align 4
  %18 = icmp eq i32 %17, 1
  br i1 %18, label %37, label %19

19:                                               ; preds = %16
  %20 = load i32, i32* %5, align 4
  %21 = icmp eq i32 %20, 3
  br i1 %21, label %37, label %22

22:                                               ; preds = %19
  %23 = load i32, i32* %5, align 4
  %24 = icmp eq i32 %23, 5
  br i1 %24, label %37, label %25

25:                                               ; preds = %22
  %26 = load i32, i32* %5, align 4
  %27 = icmp eq i32 %26, 7
  br i1 %27, label %37, label %28

28:                                               ; preds = %25
  %29 = load i32, i32* %5, align 4
  %30 = icmp eq i32 %29, 8
  br i1 %30, label %37, label %31

31:                                               ; preds = %28
  %32 = load i32, i32* %5, align 4
  %33 = icmp eq i32 %32, 10
  br i1 %33, label %37, label %34

34:                                               ; preds = %31
  %35 = load i32, i32* %5, align 4
  %36 = icmp eq i32 %35, 12
  br i1 %36, label %37, label %40

37:                                               ; preds = %34, %31, %28, %25, %22, %19, %16
  %38 = load i32, i32* %4, align 4
  %39 = add nsw i32 %38, 31
  store i32 %39, i32* %4, align 4
  br label %63

40:                                               ; preds = %34
  %41 = load i32, i32* %5, align 4
  %42 = icmp eq i32 %41, 4
  br i1 %42, label %52, label %43

43:                                               ; preds = %40
  %44 = load i32, i32* %5, align 4
  %45 = icmp eq i32 %44, 6
  br i1 %45, label %52, label %46

46:                                               ; preds = %43
  %47 = load i32, i32* %5, align 4
  %48 = icmp eq i32 %47, 9
  br i1 %48, label %52, label %49

49:                                               ; preds = %46
  %50 = load i32, i32* %5, align 4
  %51 = icmp eq i32 %50, 11
  br i1 %51, label %52, label %55

52:                                               ; preds = %49, %46, %43, %40
  %53 = load i32, i32* %4, align 4
  %54 = add nsw i32 %53, 30
  store i32 %54, i32* %4, align 4
  br label %62

55:                                               ; preds = %49
  %56 = load i32, i32* %5, align 4
  %57 = icmp eq i32 %56, 2
  br i1 %57, label %58, label %61

58:                                               ; preds = %55
  %59 = load i32, i32* %4, align 4
  %60 = add nsw i32 %59, 28
  store i32 %60, i32* %4, align 4
  br label %61

61:                                               ; preds = %58, %55
  br label %62

62:                                               ; preds = %61, %52
  br label %63

63:                                               ; preds = %62, %37
  br label %64

64:                                               ; preds = %63
  %65 = load i32, i32* %5, align 4
  %66 = add nsw i32 %65, 1
  store i32 %66, i32* %5, align 4
  br label %12

67:                                               ; preds = %12
  %68 = load i32, i32* %4, align 4
  %69 = add nsw i32 %68, 13
  store i32 %69, i32* %4, align 4
  %70 = load i32, i32* %2, align 4
  %71 = load i32, i32* %4, align 4
  %72 = sub nsw i32 %71, 1
  %73 = srem i32 %72, 7
  %74 = add nsw i32 %70, %73
  store i32 %74, i32* %6, align 4
  %75 = load i32, i32* %6, align 4
  %76 = icmp sgt i32 %75, 7
  br i1 %76, label %77, label %80

77:                                               ; preds = %67
  %78 = load i32, i32* %6, align 4
  %79 = sub nsw i32 %78, 7
  store i32 %79, i32* %6, align 4
  br label %80

80:                                               ; preds = %77, %67
  %81 = load i32, i32* %6, align 4
  %82 = icmp eq i32 %81, 5
  br i1 %82, label %83, label %86

83:                                               ; preds = %80
  %84 = load i32, i32* %3, align 4
  %85 = call i32 (i8*, ...) @printf(i8* getelementptr inbounds ([4 x i8], [4 x i8]* @.str.1, i64 0, i64 0), i32 %84)
  br label %86

86:                                               ; preds = %83, %80
  br label %87

87:                                               ; preds = %86
  %88 = load i32, i32* %3, align 4
  %89 = add nsw i32 %88, 1
  store i32 %89, i32* %3, align 4
  br label %8

90:                                               ; preds = %8
  ret i32 0
}

declare dso_local i32 @__isoc99_scanf(i8*, ...) #1

declare dso_local i32 @printf(i8*, ...) #1


!llvm.module.flags = !{!0}
!llvm.ident = !{!1}

!0 = !{i32 1, !"wchar_size", i32 4}
!1 = !{!"clang version 10.0.0-4ubuntu1 "}
